; Function Attrs: nounwind uwtable
define void @Rnm_ManCollect_rec(ptr noundef %0, ptr noundef %1, ptr noundef %2, i32 noundef %3) local_unnamed_addr #0 {
  %5 = getelementptr inbounds nuw i8, ptr %0, i64 616
  %6 = load ptr, ptr %5, align 8, !tbaa !58
  %7 = getelementptr i8, ptr %0, i64 32
  %.val.i = load ptr, ptr %7, align 8, !tbaa !59
  %8 = ptrtoint ptr %1 to i64
  %9 = ptrtoint ptr %.val.i to i64
  %10 = sub i64 %8, %9
  %11 = sdiv exact i64 %10, 12
  %sext.i = shl i64 %11, 32
  %12 = ashr exact i64 %sext.i, 30
  %13 = getelementptr inbounds i8, ptr %6, i64 %12
  %14 = load i32, ptr %13, align 4, !tbaa !52
  %15 = getelementptr inbounds nuw i8, ptr %0, i64 176
  %16 = load i32, ptr %15, align 8, !tbaa !60
  %.not = icmp eq i32 %14, %16
  br i1 %.not, label %66, label %17

17:                                               ; preds = %4
  store i32 %16, ptr %13, align 4, !tbaa !52
  %.val27 = load i64, ptr %1, align 4
  %18 = and i64 %.val27, 2147483648
  %.not.i = icmp ne i64 %18, 0
  %19 = and i64 %.val27, 536870911
  %20 = icmp ne i64 %19, 536870911
  %narrow.i = and i1 %.not.i, %20
  br i1 %narrow.i, label %Gia_ObjIsRo.exit.sink.split, label %21

21:                                               ; preds = %17
  %.not.i33 = icmp eq i64 %18, 0
  %narrow.i34 = and i1 %.not.i33, %20
  br i1 %narrow.i34, label %22, label %Gia_ObjIsRo.exit

22:                                               ; preds = %21
  %23 = sub nsw i64 0, %19
  %24 = getelementptr inbounds %struct.Gia_Obj_t_, ptr %1, i64 %23
  tail call void @Rnm_ManCollect_rec(ptr noundef nonnull %0, ptr noundef nonnull %24, ptr noundef %2, i32 noundef %3)
  %25 = load i64, ptr %1, align 4
  %26 = lshr i64 %25, 32
  %27 = and i64 %26, 536870911
  br label %Gia_ObjIsRo.exit.sink.split

Gia_ObjIsRo.exit.sink.split:                      ; preds = %17, %22
  %.sink = phi i64 [ %27, %22 ], [ %19, %17 ]
  %28 = sub nsw i64 0, %.sink
  %29 = getelementptr inbounds %struct.Gia_Obj_t_, ptr %1, i64 %28
  tail call void @Rnm_ManCollect_rec(ptr noundef nonnull %0, ptr noundef nonnull %29, ptr noundef %2, i32 noundef %3)
  br label %Gia_ObjIsRo.exit

Gia_ObjIsRo.exit:                                 ; preds = %Gia_ObjIsRo.exit.sink.split, %21
  %30 = getelementptr i8, ptr %2, i64 4
  %.val29 = load i32, ptr %30, align 4, !tbaa !15
  %31 = add nsw i32 %.val29, %3
  %32 = getelementptr inbounds nuw i8, ptr %1, i64 8
  store i32 %31, ptr %32, align 4, !tbaa !61
  %.val = load ptr, ptr %7, align 8, !tbaa !59
  %33 = ptrtoint ptr %.val to i64
  %34 = sub i64 %8, %33
  %35 = sdiv exact i64 %34, 12
  %36 = trunc i64 %35 to i32
  %37 = load i32, ptr %2, align 8, !tbaa !18
  %38 = icmp eq i32 %.val29, %37
  br i1 %38, label %39, label %.Vec_IntGrow.exit10_crit_edge.i

.Vec_IntGrow.exit10_crit_edge.i:                  ; preds = %Gia_ObjIsRo.exit
  %.phi.trans.insert.i = getelementptr inbounds nuw i8, ptr %2, i64 8
  %.pre.i = load ptr, ptr %.phi.trans.insert.i, align 8, !tbaa !19
  br label %Vec_IntPush.exit

39:                                               ; preds = %Gia_ObjIsRo.exit
  %40 = icmp slt i32 %.val29, 16
  br i1 %40, label %41, label %49

41:                                               ; preds = %39
  %42 = getelementptr inbounds nuw i8, ptr %2, i64 8
  %43 = load ptr, ptr %42, align 8, !tbaa !19
  %.not9.i.i = icmp eq ptr %43, null
  br i1 %.not9.i.i, label %46, label %44

44:                                               ; preds = %41
  %45 = tail call dereferenceable_or_null(64) ptr @realloc(ptr noundef nonnull %43, i64 noundef 64) #24
  br label %Vec_IntGrow.exit.i

46:                                               ; preds = %41
  %47 = tail call noalias dereferenceable_or_null(64) ptr @malloc(i64 noundef 64) #21
  br label %Vec_IntGrow.exit.i

Vec_IntGrow.exit.i:                               ; preds = %46, %44
  %48 = phi ptr [ %45, %44 ], [ %47, %46 ]
  store ptr %48, ptr %42, align 8, !tbaa !19
  store i32 16, ptr %2, align 8, !tbaa !18
  br label %Vec_IntPush.exit

49:                                               ; preds = %39
  %50 = shl nuw nsw i32 %.val29, 1
  %51 = getelementptr inbounds nuw i8, ptr %2, i64 8
  %52 = load ptr, ptr %51, align 8, !tbaa !19
  %.not9.i9.i = icmp eq ptr %52, null
  %53 = zext nneg i32 %50 to i64
  %54 = shl nuw nsw i64 %53, 2
  br i1 %.not9.i9.i, label %57, label %55

55:                                               ; preds = %49
  %56 = tail call ptr @realloc(ptr noundef nonnull %52, i64 noundef %54) #24
  br label %59

57:                                               ; preds = %49
  %58 = tail call noalias ptr @malloc(i64 noundef %54) #21
  br label %59

59:                                               ; preds = %57, %55
  %60 = phi ptr [ %56, %55 ], [ %58, %57 ]
  store ptr %60, ptr %51, align 8, !tbaa !19
  store i32 %50, ptr %2, align 8, !tbaa !18
  br label %Vec_IntPush.exit

Vec_IntPush.exit:                                 ; preds = %.Vec_IntGrow.exit10_crit_edge.i, %Vec_IntGrow.exit.i, %59
  %61 = phi ptr [ %.pre.i, %.Vec_IntGrow.exit10_crit_edge.i ], [ %60, %59 ], [ %48, %Vec_IntGrow.exit.i ]
  %62 = load i32, ptr %30, align 4, !tbaa !15
  %63 = add nsw i32 %62, 1
  store i32 %63, ptr %30, align 4, !tbaa !15
  %64 = sext i32 %62 to i64
  %65 = getelementptr inbounds i32, ptr %61, i64 %64
  store i32 %36, ptr %65, align 4, !tbaa !52
  br label %66

66:                                               ; preds = %4, %Vec_IntPush.exit
  ret void
}